target datalayout = "e-m:e-p270:32:32-p271:32:32-p272:64:64-i64:64-i128:128-f80:128-n8:16:32:64-S128"
target triple = "x86_64-pc-linux-gnu"

%struct.GCtrace = type { %struct.GCRef, i8, i8, i16, i32, i32, %struct.GCRef, ptr, i32, i32, ptr, ptr, %struct.GCRef, %struct.MRef, i32, i32, ptr, i32, i16, i16, i16, i16, i16, i16, i16, i8, i8, i8, i8 }
%struct.GCRef = type { i64 }
%struct.MRef = type { i64 }
%union.IRIns = type { %struct.GCRef }

; Function Attrs: nounwind uwtable
define hidden ptr @lj_trace_alloc(ptr noundef %0, ptr noundef %1) #3 {
  %3 = alloca ptr, align 8
  %4 = alloca ptr, align 8
  %5 = alloca i64, align 8
  %6 = alloca i64, align 8
  %7 = alloca i64, align 8
  %8 = alloca ptr, align 8
  %9 = alloca ptr, align 8
  store ptr %0, ptr %3, align 8, !tbaa !35
  store ptr %1, ptr %4, align 8, !tbaa !36
  call void @llvm.lifetime.start.p0(i64 8, ptr %5) #11
  store i64 120, ptr %5, align 8, !tbaa !37
  call void @llvm.lifetime.start.p0(i64 8, ptr %6) #11
  %10 = load ptr, ptr %4, align 8, !tbaa !36
  %11 = getelementptr inbounds nuw %struct.GCtrace, ptr %10, i32 0, i32 4
  %12 = load i32, ptr %11, align 4, !tbaa !38
  %13 = load ptr, ptr %4, align 8, !tbaa !36
  %14 = getelementptr inbounds nuw %struct.GCtrace, ptr %13, i32 0, i32 8
  %15 = load i32, ptr %14, align 8, !tbaa !39
  %16 = sub i32 %12, %15
  %17 = zext i32 %16 to i64
  %18 = mul i64 %17, 8
  store i64 %18, ptr %6, align 8, !tbaa !37
  call void @llvm.lifetime.start.p0(i64 8, ptr %7) #11
  %19 = load i64, ptr %5, align 8, !tbaa !37
  %20 = load i64, ptr %6, align 8, !tbaa !37
  %21 = add i64 %19, %20
  %22 = load ptr, ptr %4, align 8, !tbaa !36
  %23 = getelementptr inbounds nuw %struct.GCtrace, ptr %22, i32 0, i32 3
  %24 = load i16, ptr %23, align 2, !tbaa !40
  %25 = zext i16 %24 to i64
  %26 = mul i64 %25, 12
  %27 = add i64 %21, %26
  %28 = load ptr, ptr %4, align 8, !tbaa !36
  %29 = getelementptr inbounds nuw %struct.GCtrace, ptr %28, i32 0, i32 9
  %30 = load i32, ptr %29, align 4, !tbaa !41
  %31 = zext i32 %30 to i64
  %32 = mul i64 %31, 4
  %33 = add i64 %27, %32
  store i64 %33, ptr %7, align 8, !tbaa !37
  call void @llvm.lifetime.start.p0(i64 8, ptr %8) #11
  %34 = load ptr, ptr %3, align 8, !tbaa !35
  %35 = load i64, ptr %7, align 8, !tbaa !37
  %36 = trunc i64 %35 to i32
  %37 = zext i32 %36 to i64
  %38 = call ptr @lj_mem_realloc(ptr noundef %34, ptr noundef null, i64 noundef 0, i64 noundef %37)
  store ptr %38, ptr %8, align 8, !tbaa !36
  call void @llvm.lifetime.start.p0(i64 8, ptr %9) #11
  %39 = load ptr, ptr %8, align 8, !tbaa !36
  %40 = load i64, ptr %5, align 8, !tbaa !37
  %41 = getelementptr inbounds nuw i8, ptr %39, i64 %40
  store ptr %41, ptr %9, align 8, !tbaa !42
  %42 = load ptr, ptr %8, align 8, !tbaa !36
  %43 = getelementptr inbounds nuw %struct.GCtrace, ptr %42, i32 0, i32 2
  store i8 9, ptr %43, align 1, !tbaa !43
  %44 = load ptr, ptr %8, align 8, !tbaa !36
  %45 = getelementptr inbounds nuw %struct.GCtrace, ptr %44, i32 0, i32 1
  store i8 0, ptr %45, align 8, !tbaa !44
  %46 = load ptr, ptr %8, align 8, !tbaa !36
  %47 = getelementptr inbounds nuw %struct.GCtrace, ptr %46, i32 0, i32 20
  store i16 0, ptr %47, align 8, !tbaa !45
  %48 = load ptr, ptr %9, align 8, !tbaa !42
  %49 = load ptr, ptr %4, align 8, !tbaa !36
  %50 = getelementptr inbounds nuw %struct.GCtrace, ptr %49, i32 0, i32 8
  %51 = load i32, ptr %50, align 8, !tbaa !39
  %52 = zext i32 %51 to i64
  %53 = sub i64 0, %52
  %54 = getelementptr inbounds %union.IRIns, ptr %48, i64 %53
  %55 = load ptr, ptr %8, align 8, !tbaa !36
  %56 = getelementptr inbounds nuw %struct.GCtrace, ptr %55, i32 0, i32 7
  store ptr %54, ptr %56, align 8, !tbaa !46
  %57 = load ptr, ptr %4, align 8, !tbaa !36
  %58 = getelementptr inbounds nuw %struct.GCtrace, ptr %57, i32 0, i32 4
  %59 = load i32, ptr %58, align 4, !tbaa !38
  %60 = load ptr, ptr %8, align 8, !tbaa !36
  %61 = getelementptr inbounds nuw %struct.GCtrace, ptr %60, i32 0, i32 4
  store i32 %59, ptr %61, align 4, !tbaa !38
  %62 = load ptr, ptr %4, align 8, !tbaa !36
  %63 = getelementptr inbounds nuw %struct.GCtrace, ptr %62, i32 0, i32 8
  %64 = load i32, ptr %63, align 8, !tbaa !39
  %65 = load ptr, ptr %8, align 8, !tbaa !36
  %66 = getelementptr inbounds nuw %struct.GCtrace, ptr %65, i32 0, i32 8
  store i32 %64, ptr %66, align 8, !tbaa !39
  %67 = load ptr, ptr %4, align 8, !tbaa !36
  %68 = getelementptr inbounds nuw %struct.GCtrace, ptr %67, i32 0, i32 3
  %69 = load i16, ptr %68, align 2, !tbaa !40
  %70 = load ptr, ptr %8, align 8, !tbaa !36
  %71 = getelementptr inbounds nuw %struct.GCtrace, ptr %70, i32 0, i32 3
  store i16 %69, ptr %71, align 2, !tbaa !40
  %72 = load ptr, ptr %4, align 8, !tbaa !36
  %73 = getelementptr inbounds nuw %struct.GCtrace, ptr %72, i32 0, i32 9
  %74 = load i32, ptr %73, align 4, !tbaa !41
  %75 = load ptr, ptr %8, align 8, !tbaa !36
  %76 = getelementptr inbounds nuw %struct.GCtrace, ptr %75, i32 0, i32 9
  store i32 %74, ptr %76, align 4, !tbaa !41
  %77 = load ptr, ptr %9, align 8, !tbaa !42
  %78 = load ptr, ptr %4, align 8, !tbaa !36
  %79 = getelementptr inbounds nuw %struct.GCtrace, ptr %78, i32 0, i32 7
  %80 = load ptr, ptr %79, align 8, !tbaa !46
  %81 = load ptr, ptr %4, align 8, !tbaa !36
  %82 = getelementptr inbounds nuw %struct.GCtrace, ptr %81, i32 0, i32 8
  %83 = load i32, ptr %82, align 8, !tbaa !39
  %84 = zext i32 %83 to i64
  %85 = getelementptr inbounds nuw %union.IRIns, ptr %80, i64 %84
  %86 = load i64, ptr %6, align 8, !tbaa !37
  call void @llvm.memcpy.p0.p0.i64(ptr align 1 %77, ptr align 8 %85, i64 %86, i1 false)
  %87 = load ptr, ptr %8, align 8, !tbaa !36
  call void @llvm.lifetime.end.p0(i64 8, ptr %9) #11
  call void @llvm.lifetime.end.p0(i64 8, ptr %8) #11
  call void @llvm.lifetime.end.p0(i64 8, ptr %7) #11
  call void @llvm.lifetime.end.p0(i64 8, ptr %6) #11
  call void @llvm.lifetime.end.p0(i64 8, ptr %5) #11
  ret ptr %87
}