; Function Attrs: nounwind uwtable
define hidden ptr @lj_trace_alloc(ptr noundef %0, ptr noundef readonly captures(none) %1) local_unnamed_addr #2 {
  %3 = getelementptr inbounds nuw i8, ptr %1, i64 12
  %4 = load i32, ptr %3, align 4, !tbaa !31
  %5 = getelementptr inbounds nuw i8, ptr %1, i64 40
  %6 = load i32, ptr %5, align 8, !tbaa !32
  %7 = sub i32 %4, %6
  %8 = zext i32 %7 to i64
  %9 = shl nuw nsw i64 %8, 3
  %10 = add nuw nsw i64 %9, 120
  %11 = getelementptr inbounds nuw i8, ptr %1, i64 10
  %12 = load i16, ptr %11, align 2, !tbaa !33
  %13 = zext i16 %12 to i64
  %14 = mul nuw nsw i64 %13, 12
  %15 = add nuw nsw i64 %10, %14
  %16 = getelementptr inbounds nuw i8, ptr %1, i64 44
  %17 = load i32, ptr %16, align 4, !tbaa !34
  %18 = zext i32 %17 to i64
  %19 = shl nuw nsw i64 %18, 2
  %20 = add nuw nsw i64 %15, %19
  %21 = and i64 %20, 4294967292
  %22 = tail call ptr @lj_mem_realloc(ptr noundef %0, ptr noundef null, i64 noundef 0, i64 noundef %21) #14
  %23 = getelementptr inbounds nuw i8, ptr %22, i64 120
  %24 = getelementptr inbounds nuw i8, ptr %22, i64 9
  store i8 9, ptr %24, align 1, !tbaa !35
  %25 = getelementptr inbounds nuw i8, ptr %22, i64 8
  store i8 0, ptr %25, align 8, !tbaa !36
  %26 = getelementptr inbounds nuw i8, ptr %22, i64 104
  store i16 0, ptr %26, align 8, !tbaa !37
  %27 = load i32, ptr %5, align 8, !tbaa !32
  %28 = zext i32 %27 to i64
  %29 = sub nsw i64 0, %28
  %30 = getelementptr inbounds %union.IRIns, ptr %23, i64 %29
  %31 = getelementptr inbounds nuw i8, ptr %22, i64 32
  store ptr %30, ptr %31, align 8, !tbaa !38
  %32 = load i32, ptr %3, align 4, !tbaa !31
  %33 = getelementptr inbounds nuw i8, ptr %22, i64 12
  store i32 %32, ptr %33, align 4, !tbaa !31
  %34 = getelementptr inbounds nuw i8, ptr %22, i64 40
  store i32 %27, ptr %34, align 8, !tbaa !32
  %35 = load i16, ptr %11, align 2, !tbaa !33
  %36 = getelementptr inbounds nuw i8, ptr %22, i64 10
  store i16 %35, ptr %36, align 2, !tbaa !33
  %37 = load i32, ptr %16, align 4, !tbaa !34
  %38 = getelementptr inbounds nuw i8, ptr %22, i64 44
  store i32 %37, ptr %38, align 4, !tbaa !34
  %39 = getelementptr inbounds nuw i8, ptr %1, i64 32
  %40 = load ptr, ptr %39, align 8, !tbaa !38
  %41 = getelementptr inbounds nuw %union.IRIns, ptr %40, i64 %28
  tail call void @llvm.memcpy.p0.p0.i64(ptr nonnull align 1 %23, ptr align 8 %41, i64 %9, i1 false)
  ret ptr %22
}